; Function Attrs: nounwind sspstrong uwtable
define internal i64 @match_bytebegin(i64 noundef %0, i64 noundef %1) #2 {
  %3 = tail call fastcc i32 @match_backref_number(i64 noundef %0, i64 noundef %1)
  %4 = inttoptr i64 %0 to ptr
  %5 = getelementptr inbounds nuw i8, ptr %4, i64 24
  %6 = load i64, ptr %5, align 8, !tbaa !31
  %.not.i = icmp eq i64 %6, 0
  br i1 %.not.i, label %7, label %match_check.exit

7:                                                ; preds = %2
  %8 = load i64, ptr @rb_eTypeError, align 8, !tbaa !18
  tail call void (i64, ptr, ...) @rb_raise(i64 noundef %8, ptr noundef nonnull @.str.76) #30
  unreachable

match_check.exit:                                 ; preds = %2
  %9 = icmp slt i32 %3, 0
  br i1 %9, label %13, label %10

10:                                               ; preds = %match_check.exit
  %11 = getelementptr i8, ptr %4, i64 36
  %12 = load i32, ptr %11, align 4, !tbaa !40
  %.not.i11 = icmp sgt i32 %12, %3
  br i1 %.not.i11, label %backref_number_check.exit, label %13

13:                                               ; preds = %10, %match_check.exit
  %14 = load i64, ptr @rb_eIndexError, align 8, !tbaa !18
  tail call void (i64, ptr, ...) @rb_raise(i64 noundef %14, ptr noundef nonnull @.str.120, i32 noundef %3) #30
  unreachable

backref_number_check.exit:                        ; preds = %10
  %15 = getelementptr i8, ptr %4, i64 40
  %16 = load ptr, ptr %15, align 8, !tbaa !92
  %17 = zext nneg i32 %3 to i64
  %18 = getelementptr i64, ptr %16, i64 %17
  %19 = load i64, ptr %18, align 8, !tbaa !18
  %20 = icmp slt i64 %19, 0
  br i1 %20, label %rb_long2num_inline.exit, label %21

21:                                               ; preds = %backref_number_check.exit
  %22 = add nuw i64 %19, 4611686018427387904
  %or.cond.i = icmp sgt i64 %22, -1
  br i1 %or.cond.i, label %23, label %26

23:                                               ; preds = %21
  %24 = shl nuw nsw i64 %19, 1
  %25 = or disjoint i64 %24, 1
  br label %rb_long2num_inline.exit

26:                                               ; preds = %21
  %27 = tail call i64 @rb_int2big(i64 noundef %19) #29
  br label %rb_long2num_inline.exit

rb_long2num_inline.exit:                          ; preds = %26, %23, %backref_number_check.exit
  %.0 = phi i64 [ 4, %backref_number_check.exit ], [ %25, %23 ], [ %27, %26 ]
  ret i64 %.0
}